target datalayout = "e-m:e-p270:32:32-p271:32:32-p272:64:64-i64:64-i128:128-f80:128-n8:16:32:64-S128"
target triple = "x86_64-pc-linux-gnu"

%union.pthread_mutex_t = type { %struct.__pthread_mutex_s }
%struct.__pthread_mutex_s = type { i32, i32, i32, i32, i32, i16, i16, %struct.__pthread_internal_list }
%struct.__pthread_internal_list = type { ptr, ptr }
%struct.stepd_step_rec_t = type { ptr, ptr, i32, %union.pthread_cond_t, %union.pthread_mutex_t, %struct.slurm_step_id_msg, i32, i32, i32, i32, i32, i32, ptr, ptr, i32, i32, ptr, i32, i32, i32, i32, i32, ptr, ptr, ptr, ptr, i32, i32, i64, i64, i16, i32, ptr, ptr, ptr, i32, ptr, i32, ptr, i32, ptr, i16, i32, i32, i32, ptr, i32, ptr, ptr, ptr, ptr, i32, i32, ptr, ptr, i8, i8, i8, i64, i32, ptr, ptr, ptr, ptr, ptr, ptr, ptr, ptr, ptr, ptr, i32, i32, ptr, i8, %union.pthread_cond_t, %union.pthread_mutex_t, i64, ptr, i32, i32, i32, ptr, i64, ptr, ptr, i8, ptr, i16, ptr, ptr, ptr, ptr, ptr, ptr, i64, ptr, i64, ptr, i16, i8, i16, i32, ptr, i16, ptr, ptr, i16, ptr, ptr, ptr, i8 }
%struct.slurm_step_id_msg = type { i64, i32, i32, i32 }
%union.pthread_cond_t = type { %struct.__pthread_cond_s }
%struct.__pthread_cond_s = type { %union.__atomic_wide_counter, %union.__atomic_wide_counter, [2 x i32], [2 x i32], i32, i32, [2 x i32] }
%union.__atomic_wide_counter = type { i64 }
%struct.stepd_step_task_info_t = type { %union.pthread_mutex_t, i32, ptr, i32, i32, i32, ptr, ptr, ptr, i32, i32, i32, i32, i32, i32, ptr, ptr, ptr, i8, i8, i8, i8, i32, i32, ptr }

@.str.345 = private unnamed_addr constant [37 x i8] c"Not enough gres to bind %lu per task\00", align 1

; Function Attrs: nounwind uwtable
define internal ptr @_get_gres_per_task(ptr noundef %0, i64 noundef %1, ptr noundef %2, i32 noundef %3, i32 noundef %4) #0 {
  %6 = alloca ptr, align 8
  %7 = alloca i64, align 8
  %8 = alloca ptr, align 8
  %9 = alloca i32, align 4
  %10 = alloca i32, align 4
  %11 = alloca i64, align 8
  %12 = alloca ptr, align 8
  %13 = alloca ptr, align 8
  %14 = alloca i32, align 4
  %15 = alloca i32, align 4
  %16 = alloca ptr, align 8
  store ptr %0, ptr %6, align 8
  store i64 %1, ptr %7, align 8
  store ptr %2, ptr %8, align 8
  store i32 %3, ptr %9, align 4
  store i32 %4, ptr %10, align 4
  call void @llvm.lifetime.start.p0(i64 8, ptr %11) #11
  call void @llvm.lifetime.start.p0(i64 8, ptr %12) #11
  call void @llvm.lifetime.start.p0(i64 8, ptr %13) #11
  %17 = load ptr, ptr %6, align 8
  %18 = call i64 @bit_size(ptr noundef %17)
  %19 = call ptr @bit_alloc(i64 noundef %18)
  store ptr %19, ptr %12, align 8
  %20 = load ptr, ptr %6, align 8
  %21 = call ptr @bit_copy(ptr noundef %20)
  store ptr %21, ptr %13, align 8
  call void @llvm.lifetime.start.p0(i64 4, ptr %14) #11
  store i32 0, ptr %14, align 4
  br label %22

22:                                               ; preds = %74, %5
  %23 = load i32, ptr %14, align 4
  %24 = load i32, ptr %10, align 4
  %25 = icmp sle i32 %23, %24
  br i1 %25, label %27, label %26

26:                                               ; preds = %22
  store i32 2, ptr %15, align 4
  br label %77

27:                                               ; preds = %22
  %28 = load i64, ptr %7, align 8
  store i64 %28, ptr %11, align 8
  %29 = load i64, ptr %11, align 8
  %30 = icmp ne i64 %29, 0
  br i1 %30, label %31, label %57

31:                                               ; preds = %27
  call void @llvm.lifetime.start.p0(i64 8, ptr %16) #11
  %32 = load i32, ptr %9, align 4
  %33 = load ptr, ptr %13, align 8
  %34 = load ptr, ptr %8, align 8
  %35 = getelementptr inbounds nuw %struct.stepd_step_rec_t, ptr %34, i32 0, i32 62
  %36 = load ptr, ptr %35, align 8
  %37 = load i32, ptr %14, align 4
  %38 = sext i32 %37 to i64
  %39 = getelementptr inbounds ptr, ptr %36, i64 %38
  %40 = load ptr, ptr %39, align 8
  %41 = getelementptr inbounds nuw %struct.stepd_step_task_info_t, ptr %40, i32 0, i32 2
  %42 = load ptr, ptr %41, align 8
  %43 = call ptr @_get_closest_usable_gres(i32 noundef %32, ptr noundef %33, ptr noundef %42)
  store ptr %43, ptr %16, align 8
  %44 = load ptr, ptr %16, align 8
  %45 = load ptr, ptr %13, align 8
  %46 = load ptr, ptr %12, align 8
  %47 = load i32, ptr %14, align 4
  %48 = load i32, ptr %10, align 4
  %49 = icmp eq i32 %47, %48
  call void @_filter_gres_per_task(ptr noundef %44, ptr noundef %45, ptr noundef %46, ptr noundef %11, i1 noundef zeroext %49)
  br label %50

50:                                               ; preds = %31
  %51 = load ptr, ptr %16, align 8
  %52 = icmp ne ptr %51, null
  br i1 %52, label %53, label %54

53:                                               ; preds = %50
  call void @slurm_bit_free(ptr noundef %16)
  br label %54

54:                                               ; preds = %53, %50
  store ptr null, ptr %16, align 8
  br label %55

55:                                               ; preds = %54
  br label %56

56:                                               ; preds = %55
  call void @llvm.lifetime.end.p0(i64 8, ptr %16) #11
  br label %57

57:                                               ; preds = %56, %27
  %58 = load i64, ptr %11, align 8
  %59 = icmp ne i64 %58, 0
  br i1 %59, label %60, label %67

60:                                               ; preds = %57
  %61 = load ptr, ptr %13, align 8
  %62 = load ptr, ptr %13, align 8
  %63 = load ptr, ptr %12, align 8
  %64 = load i32, ptr %14, align 4
  %65 = load i32, ptr %10, align 4
  %66 = icmp eq i32 %64, %65
  call void @_filter_gres_per_task(ptr noundef %61, ptr noundef %62, ptr noundef %63, ptr noundef %11, i1 noundef zeroext %66)
  br label %67

67:                                               ; preds = %60, %57
  %68 = load i64, ptr %11, align 8
  %69 = icmp ne i64 %68, 0
  br i1 %69, label %70, label %73

70:                                               ; preds = %67
  %71 = load i64, ptr %7, align 8
  %72 = call i32 (ptr, ...) @error(ptr noundef @.str.345, i64 noundef %71)
  store i32 2, ptr %15, align 4
  br label %77

73:                                               ; preds = %67
  br label %74

74:                                               ; preds = %73
  %75 = load i32, ptr %14, align 4
  %76 = add nsw i32 %75, 1
  store i32 %76, ptr %14, align 4
  br label %22, !llvm.loop !214

77:                                               ; preds = %70, %26
  call void @llvm.lifetime.end.p0(i64 4, ptr %14) #11
  br label %78

78:                                               ; preds = %77
  br label %79

79:                                               ; preds = %78
  %80 = load ptr, ptr %13, align 8
  %81 = icmp ne ptr %80, null
  br i1 %81, label %82, label %83

82:                                               ; preds = %79
  call void @slurm_bit_free(ptr noundef %13)
  br label %83

83:                                               ; preds = %82, %79
  store ptr null, ptr %13, align 8
  br label %84

84:                                               ; preds = %83
  br label %85

85:                                               ; preds = %84
  %86 = load ptr, ptr %12, align 8
  store i32 1, ptr %15, align 4
  call void @llvm.lifetime.end.p0(i64 8, ptr %13) #11
  call void @llvm.lifetime.end.p0(i64 8, ptr %12) #11
  call void @llvm.lifetime.end.p0(i64 8, ptr %11) #11
  ret ptr %86
}