; Function Attrs: nounwind uwtable
define internal fastcc ptr @_get_gres_per_task(ptr noundef nonnull %0, i64 noundef %1, ptr noundef readonly captures(none) %2, i32 noundef %3, i32 noundef %4) unnamed_addr #2 {
  %6 = alloca i64, align 8
  %7 = alloca ptr, align 8
  %8 = alloca ptr, align 8
  call void @llvm.lifetime.start.p0(i64 8, ptr nonnull %6) #28
  call void @llvm.lifetime.start.p0(i64 8, ptr nonnull %7) #28
  %9 = tail call i64 @bit_size(ptr noundef nonnull %0) #28
  %10 = tail call ptr @bit_alloc(i64 noundef %9) #28
  %11 = tail call ptr @bit_copy(ptr noundef nonnull %0) #28
  store ptr %11, ptr %7, align 8
  %.not26 = icmp slt i32 %4, 0
  br i1 %.not26, label %.loopexit, label %.lr.ph

.lr.ph:                                           ; preds = %5
  %.not17 = icmp eq i64 %1, 0
  %12 = getelementptr inbounds nuw i8, ptr %2, i64 480
  br i1 %.not17, label %.loopexit, label %.lr.ph.split.preheader

.lr.ph.split.preheader:                           ; preds = %.lr.ph
  %13 = zext nneg i32 %4 to i64
  %14 = add nuw i32 %4, 1
  %wide.trip.count = zext i32 %14 to i64
  br label %.lr.ph.split

.lr.ph.split:                                     ; preds = %.lr.ph.split.preheader, %.thread24
  %15 = phi ptr [ %11, %.lr.ph.split.preheader ], [ %22, %.thread24 ]
  %indvars.iv = phi i64 [ 0, %.lr.ph.split.preheader ], [ %indvars.iv.next, %.thread24 ]
  store i64 %1, ptr %6, align 8
  call void @llvm.lifetime.start.p0(i64 8, ptr nonnull %8) #28
  %16 = load ptr, ptr %12, align 8
  %17 = getelementptr inbounds nuw ptr, ptr %16, i64 %indvars.iv
  %18 = load ptr, ptr %17, align 8
  %19 = getelementptr inbounds nuw i8, ptr %18, i64 48
  %20 = load ptr, ptr %19, align 8
  %21 = call fastcc ptr @_get_closest_usable_gres(i32 noundef %3, ptr noundef %15, ptr noundef %20)
  store ptr %21, ptr %8, align 8
  %22 = load ptr, ptr %7, align 8
  %23 = icmp eq i64 %indvars.iv, %13
  call fastcc void @_filter_gres_per_task(ptr noundef %21, ptr noundef %22, ptr noundef %10, ptr noundef %6, i1 noundef zeroext %23)
  %24 = load ptr, ptr %8, align 8
  %.not18 = icmp eq ptr %24, null
  br i1 %.not18, label %26, label %25

25:                                               ; preds = %.lr.ph.split
  call void @slurm_bit_free(ptr noundef nonnull %8) #28
  br label %26

26:                                               ; preds = %.lr.ph.split, %25
  call void @llvm.lifetime.end.p0(i64 8, ptr nonnull %8) #28
  %.pr = load i64, ptr %6, align 8
  %.not19 = icmp eq i64 %.pr, 0
  br i1 %.not19, label %.thread24, label %27

27:                                               ; preds = %26
  call fastcc void @_filter_gres_per_task(ptr noundef %22, ptr noundef %22, ptr noundef %10, ptr noundef %6, i1 noundef zeroext %23)
  %.pr23 = load i64, ptr %6, align 8
  %.not20 = icmp eq i64 %.pr23, 0
  br i1 %.not20, label %.thread24, label %28

28:                                               ; preds = %27
  %29 = call i32 (ptr, ...) @error(ptr noundef nonnull @.str.345, i64 noundef %1) #28
  br label %.loopexit

.thread24:                                        ; preds = %26, %27
  %indvars.iv.next = add nuw nsw i64 %indvars.iv, 1
  %exitcond.not = icmp eq i64 %indvars.iv.next, %wide.trip.count
  br i1 %exitcond.not, label %.loopexit, label %.lr.ph.split, !llvm.loop !218

.loopexit:                                        ; preds = %.thread24, %.lr.ph, %5, %28
  %30 = phi ptr [ %11, %5 ], [ %22, %28 ], [ %11, %.lr.ph ], [ %22, %.thread24 ]
  %.not21 = icmp eq ptr %30, null
  br i1 %.not21, label %32, label %31

31:                                               ; preds = %.loopexit
  call void @slurm_bit_free(ptr noundef nonnull %7) #28
  br label %32

32:                                               ; preds = %31, %.loopexit
  call void @llvm.lifetime.end.p0(i64 8, ptr nonnull %7) #28
  call void @llvm.lifetime.end.p0(i64 8, ptr nonnull %6) #28
  ret ptr %10
}